target datalayout = "e-m:e-p270:32:32-p271:32:32-p272:64:64-i64:64-i128:128-f80:128-n8:16:32:64-S128"
target triple = "x86_64-pc-linux-gnu"

%"class.icu_77::number::Scale" = type <{ i32, [4 x i8], ptr, i32, [4 x i8] }>
%"class.icu_77::LocalPointer" = type { %"class.icu_77::LocalPointerBase" }
%"class.icu_77::LocalPointerBase" = type { ptr }

@_ZN6icu_776number5ScaleC1EiPNS0_4impl6DecNumE = unnamed_addr alias void (ptr, i32, ptr), ptr @_ZN6icu_776number5ScaleC2EiPNS0_4impl6DecNumE

; Function Attrs: mustprogress nounwind uwtable
define linkonce_odr void @_ZN6icu_7716LocalPointerBaseINS_6number4impl6DecNumEED2Ev(ptr noundef nonnull align 8 dereferenceable(8) %0) unnamed_addr #0 comdat align 2 {
  %2 = alloca ptr, align 8
  store ptr %0, ptr %2, align 8, !tbaa !37
  ret void
}

; Function Attrs: inlinehint mustprogress nounwind uwtable
define internal noundef signext i8 @_ZL9U_SUCCESS10UErrorCode(i32 noundef %0) #2 {
  %2 = alloca i32, align 4
  store i32 %0, ptr %2, align 4, !tbaa !15
  %3 = load i32, ptr %2, align 4, !tbaa !15
  %4 = icmp sle i32 %3, 0
  %5 = zext i1 %4 to i8
  ret i8 %5
}

; Function Attrs: mustprogress nounwind uwtable
define linkonce_odr void @_ZN6icu_7716LocalPointerBaseINS_6number4impl6DecNumEEC2EPS3_(ptr noundef nonnull align 8 dereferenceable(8) %0, ptr noundef %1) unnamed_addr #0 comdat align 2 {
  %3 = alloca ptr, align 8
  %4 = alloca ptr, align 8
  store ptr %0, ptr %3, align 8, !tbaa !37
  store ptr %1, ptr %4, align 8, !tbaa !25
  %5 = load ptr, ptr %3, align 8
  %6 = getelementptr inbounds nuw %"class.icu_77::LocalPointerBase", ptr %5, i32 0, i32 0
  %7 = load ptr, ptr %4, align 8, !tbaa !25
  store ptr %7, ptr %6, align 8, !tbaa !39
  ret void
}

; Function Attrs: mustprogress nounwind uwtable
define linkonce_odr noundef ptr @_ZN6icu_7716LocalPointerBaseINS_6number4impl6DecNumEE6orphanEv(ptr noundef nonnull align 8 dereferenceable(8) %0) #0 comdat align 2 {
  %2 = alloca ptr, align 8
  %3 = alloca ptr, align 8
  store ptr %0, ptr %2, align 8, !tbaa !37
  %4 = load ptr, ptr %2, align 8
  call void @llvm.lifetime.start.p0(i64 8, ptr %3) #10
  %5 = getelementptr inbounds nuw %"class.icu_77::LocalPointerBase", ptr %4, i32 0, i32 0
  %6 = load ptr, ptr %5, align 8, !tbaa !39
  store ptr %6, ptr %3, align 8, !tbaa !25
  %7 = getelementptr inbounds nuw %"class.icu_77::LocalPointerBase", ptr %4, i32 0, i32 0
  store ptr null, ptr %7, align 8, !tbaa !39
  %8 = load ptr, ptr %3, align 8, !tbaa !25
  call void @llvm.lifetime.end.p0(i64 8, ptr %3) #10
  ret ptr %8
}

; Function Attrs: mustprogress nounwind uwtable
define linkonce_odr noundef ptr @_ZNK6icu_7716LocalPointerBaseINS_6number4impl6DecNumEEptEv(ptr noundef nonnull align 8 dereferenceable(8) %0) #0 comdat align 2 {
  %2 = alloca ptr, align 8
  store ptr %0, ptr %2, align 8, !tbaa !37
  %3 = load ptr, ptr %2, align 8
  %4 = getelementptr inbounds nuw %"class.icu_77::LocalPointerBase", ptr %3, i32 0, i32 0
  %5 = load ptr, ptr %4, align 8, !tbaa !39
  ret ptr %5
}

; Function Attrs: mustprogress nounwind uwtable
define linkonce_odr void @_ZN6icu_776number5ScaleC2E10UErrorCode(ptr noundef nonnull align 8 dereferenceable(20) %0, i32 noundef %1) unnamed_addr #0 comdat align 2 {
  %3 = alloca ptr, align 8
  %4 = alloca i32, align 4
  store ptr %0, ptr %3, align 8, !tbaa !23
  store i32 %1, ptr %4, align 4, !tbaa !15
  %5 = load ptr, ptr %3, align 8
  %6 = getelementptr inbounds nuw %"class.icu_77::number::Scale", ptr %5, i32 0, i32 0
  store i32 0, ptr %6, align 8, !tbaa !27
  %7 = getelementptr inbounds nuw %"class.icu_77::number::Scale", ptr %5, i32 0, i32 2
  store ptr null, ptr %7, align 8, !tbaa !29
  %8 = getelementptr inbounds nuw %"class.icu_77::number::Scale", ptr %5, i32 0, i32 3
  %9 = load i32, ptr %4, align 4, !tbaa !15
  store i32 %9, ptr %8, align 8, !tbaa !30
  ret void
}

; Function Attrs: inlinehint mustprogress nounwind uwtable
define internal noundef signext i8 @_ZL9U_FAILURE10UErrorCode(i32 noundef %0) #2 {
  %2 = alloca i32, align 4
  store i32 %0, ptr %2, align 4, !tbaa !15
  %3 = load i32, ptr %2, align 4, !tbaa !15
  %4 = icmp sgt i32 %3, 0
  %5 = zext i1 %4 to i8
  ret i8 %5
}

; Function Attrs: mustprogress uwtable
define linkonce_odr void @_ZN6icu_7712LocalPointerINS_6number4impl6DecNumEEC2EPS3_R10UErrorCode(ptr noundef nonnull align 8 dereferenceable(8) %0, ptr noundef %1, ptr noundef nonnull align 4 dereferenceable(4) %2) unnamed_addr #1 comdat align 2 personality ptr @__gxx_personality_v0 {
  %4 = alloca ptr, align 8
  %5 = alloca ptr, align 8
  %6 = alloca ptr, align 8
  %7 = alloca ptr, align 8
  %8 = alloca i32, align 4
  store ptr %0, ptr %4, align 8, !tbaa !35
  store ptr %1, ptr %5, align 8, !tbaa !25
  store ptr %2, ptr %6, align 8, !tbaa !22
  %9 = load ptr, ptr %4, align 8
  %10 = load ptr, ptr %5, align 8, !tbaa !25
  call void @_ZN6icu_7716LocalPointerBaseINS_6number4impl6DecNumEEC2EPS3_(ptr noundef nonnull align 8 dereferenceable(8) %9, ptr noundef %10)
  %11 = load ptr, ptr %5, align 8, !tbaa !25
  %12 = icmp eq ptr %11, null
  br i1 %12, label %13, label %25

13:                                               ; preds = %3
  %14 = load ptr, ptr %6, align 8, !tbaa !22
  %15 = load i32, ptr %14, align 4, !tbaa !15
  %16 = invoke noundef signext i8 @_ZL9U_SUCCESS10UErrorCode(i32 noundef %15)
          to label %17 unwind label %21

17:                                               ; preds = %13
  %18 = icmp ne i8 %16, 0
  br i1 %18, label %19, label %25

19:                                               ; preds = %17
  %20 = load ptr, ptr %6, align 8, !tbaa !22
  store i32 7, ptr %20, align 4, !tbaa !15
  br label %25

21:                                               ; preds = %13
  %22 = landingpad { ptr, i32 }
          cleanup
  %23 = extractvalue { ptr, i32 } %22, 0
  store ptr %23, ptr %7, align 8
  %24 = extractvalue { ptr, i32 } %22, 1
  store i32 %24, ptr %8, align 4
  call void @_ZN6icu_7716LocalPointerBaseINS_6number4impl6DecNumEED2Ev(ptr noundef nonnull align 8 dereferenceable(8) %9) #10
  br label %26

25:                                               ; preds = %19, %17, %3
  ret void

26:                                               ; preds = %21
  %27 = load ptr, ptr %7, align 8
  %28 = load i32, ptr %8, align 4
  %29 = insertvalue { ptr, i32 } poison, ptr %27, 0
  %30 = insertvalue { ptr, i32 } %29, i32 %28, 1
  resume { ptr, i32 } %30
}

; Function Attrs: mustprogress uwtable
define void @_ZN6icu_776number5Scale21byDoubleAndPowerOfTenEdi(ptr dead_on_unwind noalias writable sret(%"class.icu_77::number::Scale") align 8 %0, double noundef %1, i32 noundef %2) #1 align 2 personality ptr @__gxx_personality_v0 {
  %4 = alloca ptr, align 8
  %5 = alloca double, align 8
  %6 = alloca i32, align 4
  %7 = alloca i32, align 4
  %8 = alloca %"class.icu_77::LocalPointer", align 8
  %9 = alloca i1, align 1
  %10 = alloca ptr, align 8
  %11 = alloca i32, align 4
  %12 = alloca i32, align 4
  store ptr %0, ptr %4, align 8
  store double %1, ptr %5, align 8, !tbaa !41
  store i32 %2, ptr %6, align 4, !tbaa !14
  call void @llvm.lifetime.start.p0(i64 4, ptr %7) #10
  store i32 0, ptr %7, align 4, !tbaa !15
  call void @llvm.lifetime.start.p0(i64 8, ptr %8) #10
  %13 = call noundef ptr @_ZN6icu_777UMemorynwEm(i64 noundef 96) #10
  %14 = icmp eq ptr %13, null
  store i1 false, ptr %9, align 1
  br i1 %14, label %17, label %15

15:                                               ; preds = %3
  store i1 true, ptr %9, align 1
  invoke void @_ZN6icu_776number4impl6DecNumC1Ev(ptr noundef nonnull align 8 dereferenceable(92) %13)
          to label %16 unwind label %26

16:                                               ; preds = %15
  br label %17

17:                                               ; preds = %16, %3
  %18 = phi ptr [ %13, %16 ], [ null, %3 ]
  call void @_ZN6icu_7712LocalPointerINS_6number4impl6DecNumEEC2EPS3_R10UErrorCode(ptr noundef nonnull align 8 dereferenceable(8) %8, ptr noundef %18, ptr noundef nonnull align 4 dereferenceable(4) %7)
  %19 = load i32, ptr %7, align 4, !tbaa !15
  %20 = invoke noundef signext i8 @_ZL9U_FAILURE10UErrorCode(i32 noundef %19)
          to label %21 unwind label %33

21:                                               ; preds = %17
  %22 = icmp ne i8 %20, 0
  br i1 %22, label %23, label %37

23:                                               ; preds = %21
  %24 = load i32, ptr %7, align 4, !tbaa !15
  invoke void @_ZN6icu_776number5ScaleC2E10UErrorCode(ptr noundef nonnull align 8 dereferenceable(20) %0, i32 noundef %24)
          to label %25 unwind label %33

25:                                               ; preds = %23
  store i32 1, ptr %12, align 4
  br label %54

26:                                               ; preds = %15
  %27 = landingpad { ptr, i32 }
          cleanup
  %28 = extractvalue { ptr, i32 } %27, 0
  store ptr %28, ptr %10, align 8
  %29 = extractvalue { ptr, i32 } %27, 1
  store i32 %29, ptr %11, align 4
  %30 = load i1, ptr %9, align 1
  br i1 %30, label %31, label %32

31:                                               ; preds = %26
  call void @_ZN6icu_777UMemorydlEPv(ptr noundef %13) #10
  br label %32

32:                                               ; preds = %31, %26
  br label %55

33:                                               ; preds = %52, %49, %46, %41, %39, %37, %23, %17
  %34 = landingpad { ptr, i32 }
          cleanup
  %35 = extractvalue { ptr, i32 } %34, 0
  store ptr %35, ptr %10, align 8
  %36 = extractvalue { ptr, i32 } %34, 1
  store i32 %36, ptr %11, align 4
  call void @_ZN6icu_7712LocalPointerINS_6number4impl6DecNumEED2Ev(ptr noundef nonnull align 8 dereferenceable(8) %8) #10
  br label %55

37:                                               ; preds = %21
  %38 = invoke noundef ptr @_ZNK6icu_7716LocalPointerBaseINS_6number4impl6DecNumEEptEv(ptr noundef nonnull align 8 dereferenceable(8) %8)
          to label %39 unwind label %33

39:                                               ; preds = %37
  %40 = load double, ptr %5, align 8, !tbaa !41
  invoke void @_ZN6icu_776number4impl6DecNum5setToEdR10UErrorCode(ptr noundef nonnull align 8 dereferenceable(92) %38, double noundef %40, ptr noundef nonnull align 4 dereferenceable(4) %7)
          to label %41 unwind label %33

41:                                               ; preds = %39
  %42 = load i32, ptr %7, align 4, !tbaa !15
  %43 = invoke noundef signext i8 @_ZL9U_FAILURE10UErrorCode(i32 noundef %42)
          to label %44 unwind label %33

44:                                               ; preds = %41
  %45 = icmp ne i8 %43, 0
  br i1 %45, label %46, label %49

46:                                               ; preds = %44
  %47 = load i32, ptr %7, align 4, !tbaa !15
  invoke void @_ZN6icu_776number5ScaleC2E10UErrorCode(ptr noundef nonnull align 8 dereferenceable(20) %0, i32 noundef %47)
          to label %48 unwind label %33

48:                                               ; preds = %46
  store i32 1, ptr %12, align 4
  br label %54

49:                                               ; preds = %44
  %50 = load i32, ptr %6, align 4, !tbaa !14
  %51 = invoke noundef ptr @_ZN6icu_7716LocalPointerBaseINS_6number4impl6DecNumEE6orphanEv(ptr noundef nonnull align 8 dereferenceable(8) %8)
          to label %52 unwind label %33

52:                                               ; preds = %49
  invoke void @_ZN6icu_776number5ScaleC1EiPNS0_4impl6DecNumE(ptr noundef nonnull align 8 dereferenceable(20) %0, i32 noundef %50, ptr noundef %51)
          to label %53 unwind label %33

53:                                               ; preds = %52
  store i32 1, ptr %12, align 4
  br label %54

54:                                               ; preds = %53, %48, %25
  call void @_ZN6icu_7712LocalPointerINS_6number4impl6DecNumEED2Ev(ptr noundef nonnull align 8 dereferenceable(8) %8) #10
  call void @llvm.lifetime.end.p0(i64 8, ptr %8) #10
  call void @llvm.lifetime.end.p0(i64 4, ptr %7) #10
  ret void

55:                                               ; preds = %33, %32
  call void @llvm.lifetime.end.p0(i64 8, ptr %8) #10
  call void @llvm.lifetime.end.p0(i64 4, ptr %7) #10
  br label %56

56:                                               ; preds = %55
  %57 = load ptr, ptr %10, align 8
  %58 = load i32, ptr %11, align 4
  %59 = insertvalue { ptr, i32 } poison, ptr %57, 0
  %60 = insertvalue { ptr, i32 } %59, i32 %58, 1
  resume { ptr, i32 } %60
}