; Function Attrs: mustprogress uwtable
define void @_ZN6icu_776number5Scale21byDoubleAndPowerOfTenEdi(ptr dead_on_unwind noalias writable sret(%"class.icu_77::number::Scale") align 8 %0, double noundef %1, i32 noundef %2) local_unnamed_addr #1 align 2 personality ptr @__gxx_personality_v0 {
  %4 = alloca i32, align 4
  %5 = alloca %"class.icu_77::LocalPointer", align 8
  call void @llvm.lifetime.start.p0(i64 4, ptr nonnull %4) #13
  store i32 0, ptr %4, align 4, !tbaa !13
  call void @llvm.lifetime.start.p0(i64 8, ptr nonnull %5) #13
  %6 = tail call noundef ptr @_ZN6icu_777UMemorynwEm(i64 noundef 96) #13
  %.not = icmp eq ptr %6, null
  br i1 %.not, label %8, label %7

7:                                                ; preds = %3
  invoke void @_ZN6icu_776number4impl6DecNumC1Ev(ptr noundef nonnull align 8 dereferenceable(92) %6)
          to label %15 unwind label %11

8:                                                ; preds = %3
  store i32 0, ptr %0, align 8, !tbaa !15
  %9 = getelementptr inbounds nuw i8, ptr %0, i64 8
  store ptr null, ptr %9, align 8, !tbaa !18
  %10 = getelementptr inbounds nuw i8, ptr %0, i64 16
  store i32 7, ptr %10, align 8, !tbaa !19
  br label %_ZN6icu_7712LocalPointerINS_6number4impl6DecNumEED2Ev.exit

11:                                               ; preds = %7
  %12 = landingpad { ptr, i32 }
          cleanup
  tail call void @_ZN6icu_777UMemorydlEPv(ptr noundef nonnull %6) #13
  br label %30

13:                                               ; preds = %19, %15
  %14 = landingpad { ptr, i32 }
          cleanup
  call void @_ZN6icu_7712LocalPointerINS_6number4impl6DecNumEED2Ev(ptr noundef nonnull align 8 dereferenceable(8) %5) #13
  br label %30

15:                                               ; preds = %7
  store ptr %6, ptr %5, align 8, !tbaa !27
  invoke void @_ZN6icu_776number4impl6DecNum5setToEdR10UErrorCode(ptr noundef nonnull align 8 dereferenceable(92) %6, double noundef %1, ptr noundef nonnull align 4 dereferenceable(4) %4)
          to label %16 unwind label %13

16:                                               ; preds = %15
  %17 = load i32, ptr %4, align 4, !tbaa !13
  %18 = icmp slt i32 %17, 1
  br i1 %18, label %19, label %20

19:                                               ; preds = %16
  store ptr null, ptr %5, align 8, !tbaa !27
  invoke void @_ZN6icu_776number5ScaleC1EiPNS0_4impl6DecNumE(ptr noundef nonnull align 8 dereferenceable(20) %0, i32 noundef %2, ptr noundef nonnull %6)
          to label %_ZN6icu_7712LocalPointerINS_6number4impl6DecNumEED2Ev.exit unwind label %13

20:                                               ; preds = %16
  store i32 0, ptr %0, align 8, !tbaa !15
  %21 = getelementptr inbounds nuw i8, ptr %0, i64 8
  store ptr null, ptr %21, align 8, !tbaa !18
  %22 = getelementptr inbounds nuw i8, ptr %0, i64 16
  store i32 %17, ptr %22, align 8, !tbaa !19
  %23 = getelementptr inbounds nuw i8, ptr %6, i64 12
  %24 = load i8, ptr %23, align 4, !tbaa !26
  %.not.i.i.i.i = icmp eq i8 %24, 0
  br i1 %.not.i.i.i.i, label %_ZN6icu_776number4impl6DecNumD2Ev.exit.i, label %25

25:                                               ; preds = %20
  %26 = load ptr, ptr %6, align 8, !tbaa !20
  invoke void @uprv_free_77(ptr noundef %26)
          to label %_ZN6icu_776number4impl6DecNumD2Ev.exit.i unwind label %27

27:                                               ; preds = %25
  %28 = landingpad { ptr, i32 }
          catch ptr null
  %29 = extractvalue { ptr, i32 } %28, 0
  call void @__clang_call_terminate(ptr %29) #15
  unreachable

_ZN6icu_776number4impl6DecNumD2Ev.exit.i:         ; preds = %25, %20
  call void @_ZN6icu_777UMemorydlEPv(ptr noundef nonnull %6) #13
  br label %_ZN6icu_7712LocalPointerINS_6number4impl6DecNumEED2Ev.exit

_ZN6icu_7712LocalPointerINS_6number4impl6DecNumEED2Ev.exit: ; preds = %8, %19, %_ZN6icu_776number4impl6DecNumD2Ev.exit.i
  call void @llvm.lifetime.end.p0(i64 8, ptr nonnull %5) #13
  call void @llvm.lifetime.end.p0(i64 4, ptr nonnull %4) #13
  ret void

30:                                               ; preds = %11, %13
  %.pn = phi { ptr, i32 } [ %14, %13 ], [ %12, %11 ]
  call void @llvm.lifetime.end.p0(i64 8, ptr nonnull %5) #13
  call void @llvm.lifetime.end.p0(i64 4, ptr nonnull %4) #13
  resume { ptr, i32 } %.pn
}